Certificate:
    Data:
        Version: 3 (0x2)
        Serial Number: 1 (0x1)
    Signature Algorithm: sha1WithRSAEncryption
        Issuer: C=us, ST=co, L=boulder, O=bob, OU=bob, CN=bob/emailAddress=bob
        Validity
            Not Before: Oct  8 19:48:31 2014 GMT
            Not After : Oct  8 19:48:31 2015 GMT
        Subject: C=us, ST=co, O=bob, OU=bob, CN=bob/emailAddress=bob
        Subject Public Key Info:
            Public Key Algorithm: rsaEncryption
                Public-Key: (1024 bit)
                Modulus:
                    00:f2:04:0b:45:94:58:61:98:88:a6:44:55:a7:84:
                    ad:29:cd:f3:ab:80:a7:51:2d:2e:6e:f0:8f:86:74:
                    78:78:16:a9:61:5f:e8:3e:5b:98:e6:8a:3f:2d:3e:
                    1e:30:df:16:c1:a3:01:d8:89:52:fe:69:a7:22:c2:
                    0d:c8:77:51:93:a3:4a:59:b4:a0:7e:3d:71:9f:a7:
                    1e:18:88:b1:a2:97:b5:95:b0:7a:9f:d3:e1:3c:ed:
                    df:e6:d4:61:a0:c4:6d:2c:af:95:95:e0:c0:eb:aa:
                    a1:11:0e:93:49:0d:06:b0:54:c0:b5:f8:77:55:56:
                    4f:50:62:d6:d1:d0:5d:15:8d
                Exponent: 65537 (0x10001)
        X509v3 extensions:
            X509v3 Basic Constraints: 
                CA:FALSE
            Netscape Comment: 
                OpenSSL Generated Certificate
            X509v3 Subject Key Identifier: 
                85:42:5C:3F:AE:CB:FB:40:34:05:14:A9:90:68:7A:51:88:A3:C3:AF
            X509v3 Authority Key Identifier: 
                keyid:2B:F0:D9:E3:B2:12:0A:39:22:A0:52:41:BB:3C:C9:9F:FF:D4:55:CD

    Signature Algorithm: sha1WithRSAEncryption
         9b:f5:11:90:ce:eb:28:a3:45:68:a6:d5:eb:99:d1:a7:c3:fa:
         b7:8b:24:7c:96:f5:4d:13:26:53:15:7a:6d:ae:83:11:91:f3:
         35:5d:66:9d:a5:8d:7a:b0:1e:b1:10:9a:cc:2f:be:34:af:76:
         da:5c:4e:5a:09:20:48:5a:35:9f:40:83:03:a3:b6:85:db:f9:
         e1:93:99:83:30:23:20:d5:ba:c6:b8:8b:a9:e2:7b:42:77:95:
         28:24:db:eb:a3:3e:0f:17:43:38:be:3d:31:2c:93:2a:4d:0a:
         68:46:c0:66:db:3a:65:f4:a0:71:4a:ef:f5:06:09:6b:e2:f3:
         f7:2d
-----BEGIN CERTIFICATE-----
MIICszCCAhygAwIBAgIBATANBgkqhkiG9w0BAQUFADBqMQswCQYDVQQGEwJ1czEL
MAkGA1UECAwCY28xEDAOBgNVBAcMB2JvdWxkZXIxDDAKBgNVBAoMA2JvYjEMMAoG
A1UECwwDYm9iMQwwCgYDVQQDDANib2IxEjAQBgkqhkiG9w0BCQEWA2JvYjAeFw0x
NDEwMDgxOTQ4MzFaFw0xNTEwMDgxOTQ4MzFaMFgxCzAJBgNVBAYTAnVzMQswCQYD
VQQIDAJjbzEMMAoGA1UECgwDYm9iMQwwCgYDVQQLDANib2IxDDAKBgNVBAMMA2Jv
YjESMBAGCSqGSIb3DQEJARYDYm9iMIGfMA0GCSqGSIb3DQEBAQUAA4GNADCBiQKB
gQDyBAtFlFhhmIimRFWnhK0pzfOrgKdRLS5u8I+GdHh4FqlhX+g+W5jmij8tPh4w
3xbBowHYiVL+aaciwg3Id1GTo0pZtKB+PXGfpx4YiLGil7WVsHqf0+E87d/m1GGg
xG0sr5WV4MDrqqERDpNJDQawVMC1+HdVVk9QYtbR0F0VjQIDAQABo3sweTAJBgNV
HRMEAjAAMCwGCWCGSAGG+EIBDQQfFh1PcGVuU1NMIEdlbmVyYXRlZCBDZXJ0aWZp
Y2F0ZTAdBgNVHQ4EFgQUhUJcP67L+0A0BRSpkGh6UYijw68wHwYDVR0jBBgwFoAU
K/DZ47ISCjkioFJBuzzJn//UVc0wDQYJKoZIhvcNAQEFBQADgYEAm/URkM7rKKNF
aKbV65nRp8P6t4skfJb1TRMmUxV6ba6DEZHzNV1mnaWNerAesRCazC++NK922lxO
WgkgSFo1n0CDA6O2hdv54ZOZgzAjINW6xriLqeJ7QneVKCTb66M+DxdDOL49MSyT
Kk0KaEbAZts6ZfSgcUrv9QYJa+Lz9y0=
-----END CERTIFICATE-----
